target datalayout = "e-m:e-p270:32:32-p271:32:32-p272:64:64-i64:64-i128:128-f80:128-n8:16:32:64-S128"
target triple = "x86_64-pc-linux-gnu"

%struct.pmix_tsd_key_value = type { i32, ptr }

@pmix_main_thread = internal global i64 0, align 8
@pmix_tsd_key_values = internal global ptr null, align 8
@pmix_tsd_key_values_count = internal global i32 0, align 4

; Function Attrs: nounwind uwtable
define i32 @pmix_tsd_key_create(ptr noundef %0, ptr noundef %1) #0 {
  %3 = alloca ptr, align 8
  %4 = alloca ptr, align 8
  %5 = alloca i32, align 4
  store ptr %0, ptr %3, align 8, !tbaa !37
  store ptr %1, ptr %4, align 8, !tbaa !17
  call void @llvm.lifetime.start.p0(i64 4, ptr %5) #9
  %6 = load ptr, ptr %3, align 8, !tbaa !37
  %7 = load ptr, ptr %4, align 8, !tbaa !17
  %8 = call i32 @pthread_key_create(ptr noundef %6, ptr noundef %7) #9
  store i32 %8, ptr %5, align 4, !tbaa !16
  %9 = load i32, ptr %5, align 4, !tbaa !16
  %10 = icmp eq i32 0, %9
  br i1 %10, label %11, label %37

11:                                               ; preds = %2
  %12 = call i64 @pthread_self() #10
  %13 = load i64, ptr @pmix_main_thread, align 8, !tbaa !39
  %14 = icmp eq i64 %12, %13
  br i1 %14, label %15, label %37

15:                                               ; preds = %11
  %16 = load ptr, ptr @pmix_tsd_key_values, align 8, !tbaa !40
  %17 = load i32, ptr @pmix_tsd_key_values_count, align 4, !tbaa !16
  %18 = add nsw i32 %17, 1
  %19 = sext i32 %18 to i64
  %20 = mul i64 %19, 16
  %21 = call ptr @realloc(ptr noundef %16, i64 noundef %20) #11
  store ptr %21, ptr @pmix_tsd_key_values, align 8, !tbaa !40
  %22 = load ptr, ptr %3, align 8, !tbaa !37
  %23 = load i32, ptr %22, align 4, !tbaa !16
  %24 = load ptr, ptr @pmix_tsd_key_values, align 8, !tbaa !40
  %25 = load i32, ptr @pmix_tsd_key_values_count, align 4, !tbaa !16
  %26 = sext i32 %25 to i64
  %27 = getelementptr inbounds %struct.pmix_tsd_key_value, ptr %24, i64 %26
  %28 = getelementptr inbounds nuw %struct.pmix_tsd_key_value, ptr %27, i32 0, i32 0
  store i32 %23, ptr %28, align 8, !tbaa !42
  %29 = load ptr, ptr %4, align 8, !tbaa !17
  %30 = load ptr, ptr @pmix_tsd_key_values, align 8, !tbaa !40
  %31 = load i32, ptr @pmix_tsd_key_values_count, align 4, !tbaa !16
  %32 = sext i32 %31 to i64
  %33 = getelementptr inbounds %struct.pmix_tsd_key_value, ptr %30, i64 %32
  %34 = getelementptr inbounds nuw %struct.pmix_tsd_key_value, ptr %33, i32 0, i32 1
  store ptr %29, ptr %34, align 8, !tbaa !44
  %35 = load i32, ptr @pmix_tsd_key_values_count, align 4, !tbaa !16
  %36 = add nsw i32 %35, 1
  store i32 %36, ptr @pmix_tsd_key_values_count, align 4, !tbaa !16
  br label %37

37:                                               ; preds = %15, %11, %2
  %38 = load i32, ptr %5, align 4, !tbaa !16
  call void @llvm.lifetime.end.p0(i64 4, ptr %5) #9
  ret i32 %38
}