; Function Attrs: nounwind uwtable
define i32 @pmix_tsd_key_create(ptr noundef %0, ptr noundef %1) local_unnamed_addr #1 {
  %3 = tail call i32 @pthread_key_create(ptr noundef %0, ptr noundef %1) #11
  %4 = icmp eq i32 %3, 0
  br i1 %4, label %5, label %20

5:                                                ; preds = %2
  %6 = tail call i64 @pthread_self() #12
  %7 = load i64, ptr @pmix_main_thread, align 8, !tbaa !25
  %8 = icmp eq i64 %6, %7
  br i1 %8, label %9, label %20

9:                                                ; preds = %5
  %10 = load ptr, ptr @pmix_tsd_key_values, align 8, !tbaa !26
  %11 = load i32, ptr @pmix_tsd_key_values_count, align 4, !tbaa !17
  %12 = add nsw i32 %11, 1
  %13 = sext i32 %12 to i64
  %14 = shl nsw i64 %13, 4
  %15 = tail call ptr @realloc(ptr noundef %10, i64 noundef %14) #14
  store ptr %15, ptr @pmix_tsd_key_values, align 8, !tbaa !26
  %16 = load i32, ptr %0, align 4, !tbaa !17
  %17 = sext i32 %11 to i64
  %18 = getelementptr inbounds %struct.pmix_tsd_key_value, ptr %15, i64 %17
  store i32 %16, ptr %18, align 8, !tbaa !28
  %19 = getelementptr inbounds %struct.pmix_tsd_key_value, ptr %15, i64 %17, i32 1
  store ptr %1, ptr %19, align 8, !tbaa !30
  store i32 %12, ptr @pmix_tsd_key_values_count, align 4, !tbaa !17
  br label %20

20:                                               ; preds = %9, %5, %2
  ret i32 %3
}